target datalayout = "e-m:e-p270:32:32-p271:32:32-p272:64:64-i64:64-i128:128-f80:128-n8:16:32:64-S128"
target triple = "x86_64-pc-linux-gnu"

%struct.transport_vtable = type { ptr, ptr, ptr, ptr, ptr, ptr, ptr }
%struct.strbuf = type { i64, i64, ptr }
%struct.helper_data = type { ptr, ptr, ptr, i16, ptr, ptr, %struct.refspec, %struct.git_transport_options }
%struct.refspec = type { ptr, i32, i32, i32 }
%struct.git_transport_options = type { i16, i32, ptr, ptr, ptr, ptr, ptr, %struct.list_objects_filter_options, ptr, ptr }
%struct.list_objects_filter_options = type { %struct.strbuf, i32, i8, ptr, i64, i64, i32, i64, i64, ptr }
%struct.transport = type { ptr, ptr, ptr, ptr, ptr, i8, ptr, i8, ptr, ptr, %struct.string_list, i8, ptr, i32, ptr }
%struct.string_list = type { ptr, i64, i64, i8, ptr }

@.str = private unnamed_addr constant [27 x i8] c"GIT_TRANSPORT_HELPER_DEBUG\00", align 1
@debug = internal global i32 0, align 4
@vtable = internal global %struct.transport_vtable { ptr @set_helper_option, ptr @get_refs_list, ptr @get_bundle_uri, ptr @fetch_refs, ptr @push_refs, ptr @connect_helper, ptr @release_helper }, align 8

; Function Attrs: nounwind uwtable
define dso_local i32 @transport_helper_init(ptr noundef %0, ptr noundef %1) #0 {
  %3 = alloca ptr, align 8
  %4 = alloca ptr, align 8
  %5 = alloca ptr, align 8
  store ptr %0, ptr %3, align 8, !tbaa !4
  store ptr %1, ptr %4, align 8, !tbaa !9
  call void @llvm.lifetime.start.p0(i64 8, ptr %5) #12
  %6 = call ptr @xcalloc(i64 noundef 1, i64 noundef 224)
  store ptr %6, ptr %5, align 8, !tbaa !11
  %7 = load ptr, ptr %4, align 8, !tbaa !9
  %8 = call ptr @xstrdup(ptr noundef %7)
  %9 = load ptr, ptr %5, align 8, !tbaa !11
  %10 = getelementptr inbounds nuw %struct.helper_data, ptr %9, i32 0, i32 0
  store ptr %8, ptr %10, align 8, !tbaa !13
  %11 = load ptr, ptr %4, align 8, !tbaa !9
  call void @transport_check_allowed(ptr noundef %11)
  %12 = call ptr @getenv(ptr noundef @.str) #12
  %13 = icmp ne ptr %12, null
  br i1 %13, label %14, label %15

14:                                               ; preds = %2
  store i32 1, ptr @debug, align 4, !tbaa !29
  br label %15

15:                                               ; preds = %14, %2
  %16 = load ptr, ptr %5, align 8, !tbaa !11
  %17 = getelementptr inbounds nuw %struct.helper_data, ptr %16, i32 0, i32 7
  %18 = getelementptr inbounds nuw %struct.git_transport_options, ptr %17, i32 0, i32 7
  call void @list_objects_filter_init(ptr noundef %18)
  %19 = load ptr, ptr %5, align 8, !tbaa !11
  %20 = load ptr, ptr %3, align 8, !tbaa !4
  %21 = getelementptr inbounds nuw %struct.transport, ptr %20, i32 0, i32 3
  store ptr %19, ptr %21, align 8, !tbaa !30
  %22 = load ptr, ptr %3, align 8, !tbaa !4
  %23 = getelementptr inbounds nuw %struct.transport, ptr %22, i32 0, i32 0
  store ptr @vtable, ptr %23, align 8, !tbaa !40
  %24 = load ptr, ptr %5, align 8, !tbaa !11
  %25 = getelementptr inbounds nuw %struct.helper_data, ptr %24, i32 0, i32 7
  %26 = load ptr, ptr %3, align 8, !tbaa !4
  %27 = getelementptr inbounds nuw %struct.transport, ptr %26, i32 0, i32 12
  store ptr %25, ptr %27, align 8, !tbaa !41
  call void @llvm.lifetime.end.p0(i64 8, ptr %5) #12
  ret i32 0
}