; Function Attrs: nounwind uwtable
define dso_local noundef i32 @transport_helper_init(ptr noundef writeonly captures(none) initializes((0, 8), (24, 32), (128, 136)) %0, ptr noundef %1) local_unnamed_addr #0 {
  %3 = tail call ptr @xcalloc(i64 noundef 1, i64 noundef 224) #19
  %4 = tail call ptr @xstrdup(ptr noundef %1) #19
  store ptr %4, ptr %3, align 8, !tbaa !4
  tail call void @transport_check_allowed(ptr noundef %1) #19
  %5 = tail call ptr @getenv(ptr noundef nonnull @.str) #19
  %.not = icmp eq ptr %5, null
  br i1 %.not, label %7, label %6

6:                                                ; preds = %2
  store i1 true, ptr @debug, align 4
  br label %7

7:                                                ; preds = %6, %2
  %8 = getelementptr inbounds nuw i8, ptr %3, i64 72
  %9 = getelementptr inbounds nuw i8, ptr %3, i64 120
  tail call void @list_objects_filter_init(ptr noundef nonnull %9) #19
  %10 = getelementptr inbounds nuw i8, ptr %0, i64 24
  store ptr %3, ptr %10, align 8, !tbaa !24
  store ptr @vtable, ptr %0, align 8, !tbaa !34
  %11 = getelementptr inbounds nuw i8, ptr %0, i64 128
  store ptr %8, ptr %11, align 8, !tbaa !35
  ret i32 0
}